target datalayout = "e-m:e-p270:32:32-p271:32:32-p272:64:64-i64:64-i128:128-f80:128-n8:16:32:64-S128"
target triple = "x86_64-pc-linux-gnu"

%"class.gmx::TrajectoryAnalysisRunnerCommon::Impl" = type { %"class.gmx::ITopologyProvider", ptr, %"class.gmx::TopologyInformation", %"class.std::__cxx11::basic_string", %"class.std::__cxx11::basic_string", %"class.gmx::Selection", double, double, double, i8, i8, i8, i8, ptr, ptr, ptr, ptr }
%"class.gmx::ITopologyProvider" = type { ptr }
%"class.gmx::TopologyInformation" = type { %"class.std::unique_ptr", i8, %"class.std::unique_ptr.2", %"class.std::unique_ptr.10", i8, %"class.std::vector", %"class.std::vector", [3 x [3 x float]], i32 }
%"class.std::unique_ptr" = type { %"struct.std::__uniq_ptr_data" }
%"struct.std::__uniq_ptr_data" = type { %"class.std::__uniq_ptr_impl" }
%"class.std::__uniq_ptr_impl" = type { %"class.std::tuple" }
%"class.std::tuple" = type { %"struct.std::_Tuple_impl" }
%"struct.std::_Tuple_impl" = type { %"struct.std::_Head_base.1" }
%"struct.std::_Head_base.1" = type { ptr }
%"class.std::unique_ptr.2" = type { %"struct.std::__uniq_ptr_data.3" }
%"struct.std::__uniq_ptr_data.3" = type { %"class.std::__uniq_ptr_impl.4" }
%"class.std::__uniq_ptr_impl.4" = type { %"class.std::tuple.5" }
%"class.std::tuple.5" = type { %"struct.std::_Tuple_impl.6" }
%"struct.std::_Tuple_impl.6" = type { %"struct.std::_Head_base.9" }
%"struct.std::_Head_base.9" = type { ptr }
%"class.std::unique_ptr.10" = type { %"struct.std::__uniq_ptr_data.11" }
%"struct.std::__uniq_ptr_data.11" = type { %"class.std::__uniq_ptr_impl.12" }
%"class.std::__uniq_ptr_impl.12" = type { %"class.std::tuple.13" }
%"class.std::tuple.13" = type { %"struct.std::_Tuple_impl.14" }
%"struct.std::_Tuple_impl.14" = type { %"struct.std::_Head_base.17" }
%"struct.std::_Head_base.17" = type { ptr }
%"class.std::vector" = type { %"struct.std::_Vector_base" }
%"struct.std::_Vector_base" = type { %"struct.std::_Vector_base<gmx::BasicVector<float>, std::allocator<gmx::BasicVector<float>>>::_Vector_impl" }
%"struct.std::_Vector_base<gmx::BasicVector<float>, std::allocator<gmx::BasicVector<float>>>::_Vector_impl" = type { %"struct.std::_Vector_base<gmx::BasicVector<float>, std::allocator<gmx::BasicVector<float>>>::_Vector_impl_data" }
%"struct.std::_Vector_base<gmx::BasicVector<float>, std::allocator<gmx::BasicVector<float>>>::_Vector_impl_data" = type { ptr, ptr, ptr }
%"class.std::__cxx11::basic_string" = type { %"struct.std::__cxx11::basic_string<char>::_Alloc_hider", i64, %union.anon }
%"struct.std::__cxx11::basic_string<char>::_Alloc_hider" = type { ptr }
%union.anon = type { i64, [8 x i8] }
%"class.gmx::Selection" = type { ptr }

@_ZTVN3gmx17ITopologyProviderE = external unnamed_addr constant { [6 x ptr] }, align 8

; Function Attrs: mustprogress nounwind uwtable
define linkonce_odr void @_ZN3gmx9SelectionC2Ev(ptr noundef nonnull align 8 dereferenceable(8) %0) unnamed_addr #1 comdat align 2 {
  %2 = alloca ptr, align 8
  store ptr %0, ptr %2, align 8
  %3 = load ptr, ptr %2, align 8
  %4 = getelementptr inbounds %"class.gmx::Selection", ptr %3, i32 0, i32 0
  store ptr null, ptr %4, align 8
  ret void
}

; Function Attrs: mustprogress nounwind uwtable
define linkonce_odr void @_ZN3gmx17ITopologyProviderC2Ev(ptr noundef nonnull align 8 dereferenceable(8) %0) unnamed_addr #1 comdat align 2 {
  %2 = alloca ptr, align 8
  store ptr %0, ptr %2, align 8
  %3 = load ptr, ptr %2, align 8
  store ptr getelementptr inbounds inrange(-16, 32) ({ [6 x ptr] }, ptr @_ZTVN3gmx17ITopologyProviderE, i32 0, i32 0, i32 2), ptr %3, align 8
  ret void
}

; Function Attrs: mustprogress uwtable
define void @_ZN3gmx30TrajectoryAnalysisRunnerCommon4ImplC2EPNS_26TrajectoryAnalysisSettingsE(ptr noundef nonnull align 8 dereferenceable(280) %0, ptr noundef %1) unnamed_addr #0 align 2 personality ptr @__gxx_personality_v0 {
  %3 = alloca ptr, align 8
  %4 = alloca ptr, align 8
  %5 = alloca ptr, align 8
  %6 = alloca i32, align 4
  store ptr %0, ptr %3, align 8
  store ptr %1, ptr %4, align 8
  %7 = load ptr, ptr %3, align 8
  call void @_ZN3gmx17ITopologyProviderC2Ev(ptr noundef nonnull align 8 dereferenceable(8) %7) #11
  store ptr getelementptr inbounds inrange(-16, 32) ({ [6 x ptr] }, ptr @_ZTVN3gmx30TrajectoryAnalysisRunnerCommon4ImplE, i32 0, i32 0, i32 2), ptr %7, align 8
  %8 = getelementptr inbounds %"class.gmx::TrajectoryAnalysisRunnerCommon::Impl", ptr %7, i32 0, i32 1
  %9 = load ptr, ptr %4, align 8
  store ptr %9, ptr %8, align 8
  %10 = getelementptr inbounds %"class.gmx::TrajectoryAnalysisRunnerCommon::Impl", ptr %7, i32 0, i32 2
  invoke void @_ZN3gmx19TopologyInformationC1Ev(ptr noundef nonnull align 8 dereferenceable(128) %10)
          to label %11 unwind label %27

11:                                               ; preds = %2
  %12 = getelementptr inbounds %"class.gmx::TrajectoryAnalysisRunnerCommon::Impl", ptr %7, i32 0, i32 3
  call void @_ZNSt7__cxx1112basic_stringIcSt11char_traitsIcESaIcEEC1Ev(ptr noundef nonnull align 8 dereferenceable(32) %12) #11
  %13 = getelementptr inbounds %"class.gmx::TrajectoryAnalysisRunnerCommon::Impl", ptr %7, i32 0, i32 4
  call void @_ZNSt7__cxx1112basic_stringIcSt11char_traitsIcESaIcEEC1Ev(ptr noundef nonnull align 8 dereferenceable(32) %13) #11
  %14 = getelementptr inbounds %"class.gmx::TrajectoryAnalysisRunnerCommon::Impl", ptr %7, i32 0, i32 5
  invoke void @_ZN3gmx9SelectionC2Ev(ptr noundef nonnull align 8 dereferenceable(8) %14)
          to label %15 unwind label %31

15:                                               ; preds = %11
  %16 = getelementptr inbounds %"class.gmx::TrajectoryAnalysisRunnerCommon::Impl", ptr %7, i32 0, i32 6
  store double 0.000000e+00, ptr %16, align 8
  %17 = getelementptr inbounds %"class.gmx::TrajectoryAnalysisRunnerCommon::Impl", ptr %7, i32 0, i32 7
  store double 0.000000e+00, ptr %17, align 8
  %18 = getelementptr inbounds %"class.gmx::TrajectoryAnalysisRunnerCommon::Impl", ptr %7, i32 0, i32 8
  store double 0.000000e+00, ptr %18, align 8
  %19 = getelementptr inbounds %"class.gmx::TrajectoryAnalysisRunnerCommon::Impl", ptr %7, i32 0, i32 9
  store i8 0, ptr %19, align 8
  %20 = getelementptr inbounds %"class.gmx::TrajectoryAnalysisRunnerCommon::Impl", ptr %7, i32 0, i32 10
  store i8 0, ptr %20, align 1
  %21 = getelementptr inbounds %"class.gmx::TrajectoryAnalysisRunnerCommon::Impl", ptr %7, i32 0, i32 11
  store i8 0, ptr %21, align 2
  %22 = getelementptr inbounds %"class.gmx::TrajectoryAnalysisRunnerCommon::Impl", ptr %7, i32 0, i32 12
  store i8 0, ptr %22, align 1
  %23 = getelementptr inbounds %"class.gmx::TrajectoryAnalysisRunnerCommon::Impl", ptr %7, i32 0, i32 13
  store ptr null, ptr %23, align 8
  %24 = getelementptr inbounds %"class.gmx::TrajectoryAnalysisRunnerCommon::Impl", ptr %7, i32 0, i32 14
  store ptr null, ptr %24, align 8
  %25 = getelementptr inbounds %"class.gmx::TrajectoryAnalysisRunnerCommon::Impl", ptr %7, i32 0, i32 15
  store ptr null, ptr %25, align 8
  %26 = getelementptr inbounds %"class.gmx::TrajectoryAnalysisRunnerCommon::Impl", ptr %7, i32 0, i32 16
  store ptr null, ptr %26, align 8
  ret void

27:                                               ; preds = %2
  %28 = landingpad { ptr, i32 }
          cleanup
  %29 = extractvalue { ptr, i32 } %28, 0
  store ptr %29, ptr %5, align 8
  %30 = extractvalue { ptr, i32 } %28, 1
  store i32 %30, ptr %6, align 4
  br label %35

31:                                               ; preds = %11
  %32 = landingpad { ptr, i32 }
          cleanup
  %33 = extractvalue { ptr, i32 } %32, 0
  store ptr %33, ptr %5, align 8
  %34 = extractvalue { ptr, i32 } %32, 1
  store i32 %34, ptr %6, align 4
  call void @_ZNSt7__cxx1112basic_stringIcSt11char_traitsIcESaIcEED1Ev(ptr noundef nonnull align 8 dereferenceable(32) %13) #11
  call void @_ZNSt7__cxx1112basic_stringIcSt11char_traitsIcESaIcEED1Ev(ptr noundef nonnull align 8 dereferenceable(32) %12) #11
  call void @_ZN3gmx19TopologyInformationD1Ev(ptr noundef nonnull align 8 dereferenceable(128) %10) #11
  br label %35

35:                                               ; preds = %31, %27
  call void @_ZN3gmx17ITopologyProviderD2Ev(ptr noundef nonnull align 8 dereferenceable(8) %7) #11
  br label %36

36:                                               ; preds = %35
  %37 = load ptr, ptr %5, align 8
  %38 = load i32, ptr %6, align 4
  %39 = insertvalue { ptr, i32 } poison, ptr %37, 0
  %40 = insertvalue { ptr, i32 } %39, i32 %38, 1
  resume { ptr, i32 } %40
}