; Function Attrs: mustprogress uwtable
define void @_ZN3gmx30TrajectoryAnalysisRunnerCommon4ImplC2EPNS_26TrajectoryAnalysisSettingsE(ptr noundef nonnull align 8 dereferenceable(280) %0, ptr noundef %1) unnamed_addr #0 align 2 personality ptr @__gxx_personality_v0 {
  store ptr getelementptr inbounds inrange(-16, 32) ({ [6 x ptr] }, ptr @_ZTVN3gmx30TrajectoryAnalysisRunnerCommon4ImplE, i64 0, i32 0, i64 2), ptr %0, align 8
  %3 = getelementptr inbounds i8, ptr %0, i64 8
  store ptr %1, ptr %3, align 8
  %4 = getelementptr inbounds i8, ptr %0, i64 16
  invoke void @_ZN3gmx19TopologyInformationC1Ev(ptr noundef nonnull align 8 dereferenceable(128) %4)
          to label %5 unwind label %10

5:                                                ; preds = %2
  %6 = getelementptr inbounds i8, ptr %0, i64 144
  tail call void @_ZNSt7__cxx1112basic_stringIcSt11char_traitsIcESaIcEEC1Ev(ptr noundef nonnull align 8 dereferenceable(32) %6) #13
  %7 = getelementptr inbounds i8, ptr %0, i64 176
  tail call void @_ZNSt7__cxx1112basic_stringIcSt11char_traitsIcESaIcEEC1Ev(ptr noundef nonnull align 8 dereferenceable(32) %7) #13
  %8 = getelementptr inbounds i8, ptr %0, i64 208
  %9 = getelementptr inbounds i8, ptr %0, i64 248
  tail call void @llvm.memset.p0.i64(ptr noundef nonnull align 8 dereferenceable(36) %8, i8 0, i64 36, i1 false)
  tail call void @llvm.memset.p0.i64(ptr noundef nonnull align 8 dereferenceable(32) %9, i8 0, i64 32, i1 false)
  ret void

10:                                               ; preds = %2
  %11 = landingpad { ptr, i32 }
          cleanup
  tail call void @_ZN3gmx17ITopologyProviderD2Ev(ptr noundef nonnull align 8 dereferenceable(8) %0) #13
  resume { ptr, i32 } %11
}